target datalayout = "e-m:e-p270:32:32-p271:32:32-p272:64:64-i64:64-i128:128-f80:128-n8:16:32:64-S128"
target triple = "x86_64-pc-linux-gnu"

%struct.common_log = type { %"class.std::mutex", %"class.std::thread", %"class.std::condition_variable", ptr, i8, i8, i8, i64, %"class.std::vector.0", i64, i64, %struct.common_log_entry }
%"class.std::mutex" = type { %"class.std::__mutex_base" }
%"class.std::__mutex_base" = type { %union.pthread_mutex_t }
%union.pthread_mutex_t = type { %struct.__pthread_mutex_s }
%struct.__pthread_mutex_s = type { i32, i32, i32, i32, i32, i16, i16, %struct.__pthread_internal_list }
%struct.__pthread_internal_list = type { ptr, ptr }
%"class.std::thread" = type { %"class.std::thread::id" }
%"class.std::thread::id" = type { i64 }
%"class.std::condition_variable" = type { %"class.std::__condvar" }
%"class.std::__condvar" = type { %union.pthread_cond_t }
%union.pthread_cond_t = type { %struct.__pthread_cond_s }
%struct.__pthread_cond_s = type { %union.__atomic_wide_counter, %union.__atomic_wide_counter, [2 x i32], [2 x i32], i32, i32, [2 x i32] }
%union.__atomic_wide_counter = type { i64 }
%"class.std::vector.0" = type { %"struct.std::_Vector_base.1" }
%"struct.std::_Vector_base.1" = type { %"struct.std::_Vector_base<common_log_entry, std::allocator<common_log_entry>>::_Vector_impl" }
%"struct.std::_Vector_base<common_log_entry, std::allocator<common_log_entry>>::_Vector_impl" = type { %"struct.std::_Vector_base<common_log_entry, std::allocator<common_log_entry>>::_Vector_impl_data" }
%"struct.std::_Vector_base<common_log_entry, std::allocator<common_log_entry>>::_Vector_impl_data" = type { ptr, ptr, ptr }
%struct.common_log_entry = type <{ i32, i8, [3 x i8], i64, %"class.std::vector.5", i8, [7 x i8] }>
%"class.std::vector.5" = type { %"struct.std::_Vector_base.6" }
%"struct.std::_Vector_base.6" = type { %"struct.std::_Vector_base<char, std::allocator<char>>::_Vector_impl" }
%"struct.std::_Vector_base<char, std::allocator<char>>::_Vector_impl" = type { %"struct.std::_Vector_base<char, std::allocator<char>>::_Vector_impl_data" }
%"struct.std::_Vector_base<char, std::allocator<char>>::_Vector_impl_data" = type { ptr, ptr, ptr }

@__dso_handle = external hidden global i8
@_ZZ15common_log_mainvE3log = internal global %struct.common_log zeroinitializer, align 8
@_ZGVZ15common_log_mainvE3log = internal global i64 0, align 8

; Function Attrs: mustprogress uwtable
define linkonce_odr void @_ZN10common_logC2Ev(ptr noundef nonnull align 8 dereferenceable(208) %0) unnamed_addr #4 comdat align 2 {
  %2 = alloca ptr, align 8
  store ptr %0, ptr %2, align 8, !tbaa !23
  %3 = load ptr, ptr %2, align 8
  call void @_ZN10common_logC2Em(ptr noundef nonnull align 8 dereferenceable(208) %3, i64 noundef 256)
  ret void
}

; Function Attrs: mustprogress uwtable
define noundef ptr @_Z15common_log_mainv() #4 personality ptr @__gxx_personality_v0 {
  %1 = alloca ptr, align 8
  %2 = alloca i32, align 4
  %3 = load atomic i8, ptr @_ZGVZ15common_log_mainvE3log acquire, align 8
  %4 = icmp eq i8 %3, 0
  br i1 %4, label %5, label %11, !prof !25

5:                                                ; preds = %0
  %6 = call i32 @__cxa_guard_acquire(ptr @_ZGVZ15common_log_mainvE3log) #5
  %7 = icmp ne i32 %6, 0
  br i1 %7, label %8, label %11

8:                                                ; preds = %5
  invoke void @_ZN10common_logC2Ev(ptr noundef nonnull align 8 dereferenceable(208) @_ZZ15common_log_mainvE3log)
          to label %9 unwind label %12

9:                                                ; preds = %8
  %10 = call i32 @__cxa_atexit(ptr @_ZN10common_logD2Ev, ptr @_ZZ15common_log_mainvE3log, ptr @__dso_handle) #5
  call void @__cxa_guard_release(ptr @_ZGVZ15common_log_mainvE3log) #5
  br label %11

11:                                               ; preds = %9, %5, %0
  ret ptr @_ZZ15common_log_mainvE3log

12:                                               ; preds = %8
  %13 = landingpad { ptr, i32 }
          cleanup
  %14 = extractvalue { ptr, i32 } %13, 0
  store ptr %14, ptr %1, align 8
  %15 = extractvalue { ptr, i32 } %13, 1
  store i32 %15, ptr %2, align 4
  call void @__cxa_guard_abort(ptr @_ZGVZ15common_log_mainvE3log) #5
  br label %16

16:                                               ; preds = %12
  %17 = load ptr, ptr %1, align 8
  %18 = load i32, ptr %2, align 4
  %19 = insertvalue { ptr, i32 } poison, ptr %17, 0
  %20 = insertvalue { ptr, i32 } %19, i32 %18, 1
  resume { ptr, i32 } %20
}