; Function Attrs: mustprogress uwtable
define noundef nonnull ptr @_Z15common_log_mainv() local_unnamed_addr #5 personality ptr @__gxx_personality_v0 {
  %1 = load atomic i8, ptr @_ZGVZ15common_log_mainvE3log acquire, align 8
  %2 = icmp eq i8 %1, 0
  br i1 %2, label %3, label %7, !prof !13

3:                                                ; preds = %0
  %4 = tail call i32 @__cxa_guard_acquire(ptr nonnull @_ZGVZ15common_log_mainvE3log) #24
  %.not = icmp eq i32 %4, 0
  br i1 %.not, label %7, label %5

5:                                                ; preds = %3
  invoke void @_ZN10common_logC2Em(ptr noundef nonnull align 8 dereferenceable(208) @_ZZ15common_log_mainvE3log, i64 noundef 256)
          to label %_ZN10common_logC2Ev.exit unwind label %8

_ZN10common_logC2Ev.exit:                         ; preds = %5
  %6 = tail call i32 @__cxa_atexit(ptr nonnull @_ZN10common_logD2Ev, ptr nonnull @_ZZ15common_log_mainvE3log, ptr nonnull @__dso_handle) #24
  tail call void @__cxa_guard_release(ptr nonnull @_ZGVZ15common_log_mainvE3log) #24
  br label %7

7:                                                ; preds = %_ZN10common_logC2Ev.exit, %3, %0
  ret ptr @_ZZ15common_log_mainvE3log

8:                                                ; preds = %5
  %9 = landingpad { ptr, i32 }
          cleanup
  tail call void @__cxa_guard_abort(ptr nonnull @_ZGVZ15common_log_mainvE3log) #24
  resume { ptr, i32 } %9
}